target datalayout = "e-m:e-p270:32:32-p271:32:32-p272:64:64-i64:64-i128:128-f80:128-n8:16:32:64-S128"
target triple = "x86_64-pc-linux-gnu"

%"class.google::LogMessageFatal" = type { %"class.google::LogMessage" }
%"class.google::LogMessage" = type { ptr, ptr, %"struct.google::LogMessageTime" }
%"struct.google::LogMessageTime" = type { %struct.tm, i64, i32, i64 }
%struct.tm = type { i32, i32, i32, i32, i32, i32, i32, i32, i32, i64, ptr }
%"class.ceres::internal::DenseQR" = type { ptr }
%"class.ceres::internal::CUDADenseQR" = type <{ %"class.ceres::internal::DenseQR", ptr, i64, i64, %"class.ceres::internal::CudaBuffer", %"class.ceres::internal::CudaBuffer", %"class.ceres::internal::CudaBuffer", %"class.ceres::internal::CudaBuffer", %"class.ceres::internal::CudaBuffer.93", i32, [4 x i8] }>
%"class.ceres::internal::CudaBuffer" = type { ptr, i64, ptr }
%"class.ceres::internal::CudaBuffer.93" = type { ptr, i64, ptr }
%"class.ceres::internal::ContextImpl" = type <{ %"class.ceres::Context", %"class.ceres::internal::ThreadPool", ptr, ptr, [2 x ptr], ptr, i8, [3 x i8], i32, %struct.cudaDeviceProp, i8, [3 x i8], i32, i32, [4 x i8] }>
%"class.ceres::Context" = type { ptr }
%"class.ceres::internal::ThreadPool" = type { %"class.ceres::internal::ConcurrentQueue", %"class.std::vector.97", %"class.std::mutex" }
%"class.ceres::internal::ConcurrentQueue" = type <{ %"class.std::mutex", %"class.std::condition_variable", %"class.std::queue", i8, [7 x i8] }>
%"class.std::condition_variable" = type { %"class.std::__condvar" }
%"class.std::__condvar" = type { %union.pthread_cond_t }
%union.pthread_cond_t = type { %struct.__pthread_cond_s }
%struct.__pthread_cond_s = type { %union.__atomic_wide_counter, %union.__atomic_wide_counter, [2 x i32], [2 x i32], i32, i32, [2 x i32] }
%union.__atomic_wide_counter = type { i64 }
%"class.std::queue" = type { %"class.std::deque" }
%"class.std::deque" = type { %"class.std::_Deque_base" }
%"class.std::_Deque_base" = type { %"struct.std::_Deque_base<std::function<void ()>, std::allocator<std::function<void ()>>>::_Deque_impl" }
%"struct.std::_Deque_base<std::function<void ()>, std::allocator<std::function<void ()>>>::_Deque_impl" = type { %"struct.std::_Deque_base<std::function<void ()>, std::allocator<std::function<void ()>>>::_Deque_impl_data" }
%"struct.std::_Deque_base<std::function<void ()>, std::allocator<std::function<void ()>>>::_Deque_impl_data" = type { ptr, i64, %"struct.std::_Deque_iterator", %"struct.std::_Deque_iterator" }
%"struct.std::_Deque_iterator" = type { ptr, ptr, ptr, ptr }
%"class.std::vector.97" = type { %"struct.std::_Vector_base.98" }
%"struct.std::_Vector_base.98" = type { %"struct.std::_Vector_base<std::thread, std::allocator<std::thread>>::_Vector_impl" }
%"struct.std::_Vector_base<std::thread, std::allocator<std::thread>>::_Vector_impl" = type { %"struct.std::_Vector_base<std::thread, std::allocator<std::thread>>::_Vector_impl_data" }
%"struct.std::_Vector_base<std::thread, std::allocator<std::thread>>::_Vector_impl_data" = type { ptr, ptr, ptr }
%"class.std::mutex" = type { %"class.std::__mutex_base" }
%"class.std::__mutex_base" = type { %union.pthread_mutex_t }
%union.pthread_mutex_t = type { %struct.__pthread_mutex_s }
%struct.__pthread_mutex_s = type { i32, i32, i32, i32, i32, i16, i16, %struct.__pthread_internal_list }
%struct.__pthread_internal_list = type { ptr, ptr }
%struct.cudaDeviceProp = type { [256 x i8], %struct.CUuuid_st, [8 x i8], i32, i64, i64, i32, i32, i64, i32, [3 x i32], [3 x i32], i32, i64, i32, i32, i64, i64, i32, i32, i32, i32, i32, i32, i32, i32, i32, [2 x i32], [2 x i32], [3 x i32], [2 x i32], [3 x i32], [3 x i32], i32, [2 x i32], [3 x i32], [2 x i32], i32, [2 x i32], [3 x i32], [2 x i32], [3 x i32], i32, [2 x i32], i64, i32, i32, i32, i32, i32, i32, i32, i32, i32, i32, i32, i32, i32, i32, i32, i32, i64, i32, i32, i32, i32, i32, i32, i32, i32, i32, i32, i32, i32, i64, i32, i32, i32, i32, i64 }
%struct.CUuuid_st = type { [16 x i8] }

@.str = private unnamed_addr constant [123 x i8] c"generated/home/dtcxzyw/WorkSpace/Projects/compilers/llvm-opt-benchmark/bench/ceres/ceres-solver/internal/ceres/dense_qr.cc\00", align 1
@.str.8 = private unnamed_addr constant [11 x i8] c"Argument: \00", align 1
@.str.9 = private unnamed_addr constant [13 x i8] c" is invalid.\00", align 1
@.str.14 = private unnamed_addr constant [48 x i8] c"cuSolverDN::cusolverDnDgeqrf_bufferSize failed.\00", align 1
@.str.15 = private unnamed_addr constant [37 x i8] c"cuSolverDN::cusolverDnDgeqrf failed.\00", align 1
@.str.16 = private unnamed_addr constant [45 x i8] c"Congratulations, you found a bug in Ceres - \00", align 1
@.str.17 = private unnamed_addr constant [19 x i8] c"please report it. \00", align 1
@.str.18 = private unnamed_addr constant [43 x i8] c"cuSolverDN::cusolverDnDgeqrf fatal error. \00", align 1
@.str.19 = private unnamed_addr constant [8 x i8] c"Success\00", align 1

; Function Attrs: mustprogress nounwind uwtable
define linkonce_odr hidden noundef ptr @_ZN5ceres8internal10CudaBufferIiE4dataEv(ptr noundef nonnull align 8 dereferenceable(24) %0) #1 comdat align 2 {
  %2 = alloca ptr, align 8
  store ptr %0, ptr %2, align 8
  %3 = load ptr, ptr %2, align 8
  %4 = getelementptr inbounds %"class.ceres::internal::CudaBuffer.93", ptr %3, i32 0, i32 0
  %5 = load ptr, ptr %4, align 8
  ret ptr %5
}

; Function Attrs: mustprogress nounwind uwtable
define linkonce_odr hidden noundef i64 @_ZNK5ceres8internal10CudaBufferIdE4sizeEv(ptr noundef nonnull align 8 dereferenceable(24) %0) #1 comdat align 2 {
  %2 = alloca ptr, align 8
  store ptr %0, ptr %2, align 8
  %3 = load ptr, ptr %2, align 8
  %4 = getelementptr inbounds %"class.ceres::internal::CudaBuffer", ptr %3, i32 0, i32 1
  %5 = load i64, ptr %4, align 8
  ret i64 %5
}

; Function Attrs: mustprogress nounwind uwtable
define linkonce_odr hidden noundef ptr @_ZN5ceres8internal10CudaBufferIdE4dataEv(ptr noundef nonnull align 8 dereferenceable(24) %0) #1 comdat align 2 {
  %2 = alloca ptr, align 8
  store ptr %0, ptr %2, align 8
  %3 = load ptr, ptr %2, align 8
  %4 = getelementptr inbounds %"class.ceres::internal::CudaBuffer", ptr %3, i32 0, i32 0
  %5 = load ptr, ptr %4, align 8
  ret ptr %5
}

; Function Attrs: mustprogress nounwind uwtable
define linkonce_odr noundef nonnull align 4 dereferenceable(4) ptr @_ZSt3minIiERKT_S2_S2_(ptr noundef nonnull align 4 dereferenceable(4) %0, ptr noundef nonnull align 4 dereferenceable(4) %1) #1 comdat {
  %3 = alloca ptr, align 8
  %4 = alloca ptr, align 8
  %5 = alloca ptr, align 8
  store ptr %0, ptr %4, align 8
  store ptr %1, ptr %5, align 8
  %6 = load ptr, ptr %5, align 8
  %7 = load i32, ptr %6, align 4
  %8 = load ptr, ptr %4, align 8
  %9 = load i32, ptr %8, align 4
  %10 = icmp slt i32 %7, %9
  br i1 %10, label %11, label %13

11:                                               ; preds = %2
  %12 = load ptr, ptr %5, align 8
  store ptr %12, ptr %3, align 8
  br label %15

13:                                               ; preds = %2
  %14 = load ptr, ptr %4, align 8
  store ptr %14, ptr %3, align 8
  br label %15

15:                                               ; preds = %13, %11
  %16 = load ptr, ptr %3, align 8
  ret ptr %16
}

; Function Attrs: mustprogress uwtable
define hidden noundef i32 @_ZN5ceres8internal11CUDADenseQR9FactorizeEiiPdPNSt7__cxx1112basic_stringIcSt11char_traitsIcESaIcEEE(ptr noundef nonnull align 8 dereferenceable(160) %0, i32 noundef %1, i32 noundef %2, ptr noundef %3, ptr noundef %4) unnamed_addr #2 align 2 personality ptr @__gxx_personality_v0 {
  %6 = alloca i32, align 4
  %7 = alloca ptr, align 8
  %8 = alloca i32, align 4
  %9 = alloca i32, align 4
  %10 = alloca ptr, align 8
  %11 = alloca ptr, align 8
  %12 = alloca i32, align 4
  %13 = alloca i32, align 4
  %14 = alloca %"class.google::LogMessageFatal", align 8
  %15 = alloca ptr, align 8
  %16 = alloca i32, align 4
  store ptr %0, ptr %7, align 8
  store i32 %1, ptr %8, align 4
  store i32 %2, ptr %9, align 4
  store ptr %3, ptr %10, align 8
  store ptr %4, ptr %11, align 8
  %17 = load ptr, ptr %7, align 8
  %18 = getelementptr inbounds %"class.ceres::internal::CUDADenseQR", ptr %17, i32 0, i32 9
  store i32 3, ptr %18, align 8
  %19 = getelementptr inbounds %"class.ceres::internal::CUDADenseQR", ptr %17, i32 0, i32 4
  %20 = load i32, ptr %8, align 4
  %21 = load i32, ptr %9, align 4
  %22 = mul nsw i32 %20, %21
  %23 = sext i32 %22 to i64
  call void @_ZN5ceres8internal10CudaBufferIdE7ReserveEm(ptr noundef nonnull align 8 dereferenceable(24) %19, i64 noundef %23)
  %24 = getelementptr inbounds %"class.ceres::internal::CUDADenseQR", ptr %17, i32 0, i32 6
  %25 = call noundef nonnull align 4 dereferenceable(4) ptr @_ZSt3minIiERKT_S2_S2_(ptr noundef nonnull align 4 dereferenceable(4) %8, ptr noundef nonnull align 4 dereferenceable(4) %9)
  %26 = load i32, ptr %25, align 4
  %27 = sext i32 %26 to i64
  call void @_ZN5ceres8internal10CudaBufferIdE7ReserveEm(ptr noundef nonnull align 8 dereferenceable(24) %24, i64 noundef %27)
  %28 = load i32, ptr %8, align 4
  %29 = sext i32 %28 to i64
  %30 = getelementptr inbounds %"class.ceres::internal::CUDADenseQR", ptr %17, i32 0, i32 2
  store i64 %29, ptr %30, align 8
  %31 = load i32, ptr %9, align 4
  %32 = sext i32 %31 to i64
  %33 = getelementptr inbounds %"class.ceres::internal::CUDADenseQR", ptr %17, i32 0, i32 3
  store i64 %32, ptr %33, align 8
  %34 = getelementptr inbounds %"class.ceres::internal::CUDADenseQR", ptr %17, i32 0, i32 4
  %35 = load ptr, ptr %10, align 8
  %36 = load i32, ptr %8, align 4
  %37 = load i32, ptr %9, align 4
  %38 = mul nsw i32 %36, %37
  %39 = sext i32 %38 to i64
  call void @_ZN5ceres8internal10CudaBufferIdE11CopyFromCpuEPKdm(ptr noundef nonnull align 8 dereferenceable(24) %34, ptr noundef %35, i64 noundef %39)
  store i32 0, ptr %12, align 4
  %40 = getelementptr inbounds %"class.ceres::internal::CUDADenseQR", ptr %17, i32 0, i32 1
  %41 = load ptr, ptr %40, align 8
  %42 = getelementptr inbounds %"class.ceres::internal::ContextImpl", ptr %41, i32 0, i32 2
  %43 = load ptr, ptr %42, align 8
  %44 = load i32, ptr %8, align 4
  %45 = load i32, ptr %9, align 4
  %46 = getelementptr inbounds %"class.ceres::internal::CUDADenseQR", ptr %17, i32 0, i32 4
  %47 = call noundef ptr @_ZN5ceres8internal10CudaBufferIdE4dataEv(ptr noundef nonnull align 8 dereferenceable(24) %46)
  %48 = load i32, ptr %8, align 4
  %49 = call i32 @cusolverDnDgeqrf_bufferSize(ptr noundef %43, i32 noundef %44, i32 noundef %45, ptr noundef %47, i32 noundef %48, ptr noundef %12)
  %50 = icmp ne i32 %49, 0
  br i1 %50, label %51, label %54

51:                                               ; preds = %5
  %52 = load ptr, ptr %11, align 8
  %53 = call noundef nonnull align 8 dereferenceable(32) ptr @_ZNSt7__cxx1112basic_stringIcSt11char_traitsIcESaIcEEaSEPKc(ptr noundef nonnull align 8 dereferenceable(32) %52, ptr noundef @.str.14)
  store i32 3, ptr %6, align 4
  br label %111

54:                                               ; preds = %5
  %55 = getelementptr inbounds %"class.ceres::internal::CUDADenseQR", ptr %17, i32 0, i32 7
  %56 = load i32, ptr %12, align 4
  %57 = sext i32 %56 to i64
  call void @_ZN5ceres8internal10CudaBufferIdE7ReserveEm(ptr noundef nonnull align 8 dereferenceable(24) %55, i64 noundef %57)
  %58 = getelementptr inbounds %"class.ceres::internal::CUDADenseQR", ptr %17, i32 0, i32 1
  %59 = load ptr, ptr %58, align 8
  %60 = getelementptr inbounds %"class.ceres::internal::ContextImpl", ptr %59, i32 0, i32 2
  %61 = load ptr, ptr %60, align 8
  %62 = load i32, ptr %8, align 4
  %63 = load i32, ptr %9, align 4
  %64 = getelementptr inbounds %"class.ceres::internal::CUDADenseQR", ptr %17, i32 0, i32 4
  %65 = call noundef ptr @_ZN5ceres8internal10CudaBufferIdE4dataEv(ptr noundef nonnull align 8 dereferenceable(24) %64)
  %66 = load i32, ptr %8, align 4
  %67 = getelementptr inbounds %"class.ceres::internal::CUDADenseQR", ptr %17, i32 0, i32 6
  %68 = call noundef ptr @_ZN5ceres8internal10CudaBufferIdE4dataEv(ptr noundef nonnull align 8 dereferenceable(24) %67)
  %69 = getelementptr inbounds %"class.ceres::internal::CUDADenseQR", ptr %17, i32 0, i32 7
  %70 = call noundef ptr @_ZN5ceres8internal10CudaBufferIdE4dataEv(ptr noundef nonnull align 8 dereferenceable(24) %69)
  %71 = getelementptr inbounds %"class.ceres::internal::CUDADenseQR", ptr %17, i32 0, i32 7
  %72 = call noundef i64 @_ZNK5ceres8internal10CudaBufferIdE4sizeEv(ptr noundef nonnull align 8 dereferenceable(24) %71)
  %73 = trunc i64 %72 to i32
  %74 = getelementptr inbounds %"class.ceres::internal::CUDADenseQR", ptr %17, i32 0, i32 8
  %75 = call noundef ptr @_ZN5ceres8internal10CudaBufferIiE4dataEv(ptr noundef nonnull align 8 dereferenceable(24) %74)
  %76 = call i32 @cusolverDnDgeqrf(ptr noundef %61, i32 noundef %62, i32 noundef %63, ptr noundef %65, i32 noundef %66, ptr noundef %68, ptr noundef %70, i32 noundef %73, ptr noundef %75)
  %77 = icmp ne i32 %76, 0
  br i1 %77, label %78, label %81

78:                                               ; preds = %54
  %79 = load ptr, ptr %11, align 8
  %80 = call noundef nonnull align 8 dereferenceable(32) ptr @_ZNSt7__cxx1112basic_stringIcSt11char_traitsIcESaIcEEaSEPKc(ptr noundef nonnull align 8 dereferenceable(32) %79, ptr noundef @.str.15)
  store i32 3, ptr %6, align 4
  br label %111

81:                                               ; preds = %54
  store i32 0, ptr %13, align 4
  %82 = getelementptr inbounds %"class.ceres::internal::CUDADenseQR", ptr %17, i32 0, i32 8
  call void @_ZNK5ceres8internal10CudaBufferIiE9CopyToCpuEPim(ptr noundef nonnull align 8 dereferenceable(24) %82, ptr noundef %13, i64 noundef 1)
  %83 = load i32, ptr %13, align 4
  %84 = icmp slt i32 %83, 0
  br i1 %84, label %85, label %107

85:                                               ; preds = %81
  call void @_ZN6google15LogMessageFatalC1EPKci(ptr noundef nonnull align 8 dereferenceable(96) %14, ptr noundef @.str, i32 noundef 359)
  %86 = invoke noundef nonnull align 8 dereferenceable(8) ptr @_ZN6google10LogMessage6streamEv(ptr noundef nonnull align 8 dereferenceable(96) %14)
          to label %87 unwind label %102

87:                                               ; preds = %85
  %88 = invoke noundef nonnull align 8 dereferenceable(8) ptr @_ZStlsISt11char_traitsIcEERSt13basic_ostreamIcT_ES5_PKc(ptr noundef nonnull align 8 dereferenceable(8) %86, ptr noundef @.str.16)
          to label %89 unwind label %102

89:                                               ; preds = %87
  %90 = invoke noundef nonnull align 8 dereferenceable(8) ptr @_ZStlsISt11char_traitsIcEERSt13basic_ostreamIcT_ES5_PKc(ptr noundef nonnull align 8 dereferenceable(8) %88, ptr noundef @.str.17)
          to label %91 unwind label %102

91:                                               ; preds = %89
  %92 = invoke noundef nonnull align 8 dereferenceable(8) ptr @_ZStlsISt11char_traitsIcEERSt13basic_ostreamIcT_ES5_PKc(ptr noundef nonnull align 8 dereferenceable(8) %90, ptr noundef @.str.18)
          to label %93 unwind label %102

93:                                               ; preds = %91
  %94 = invoke noundef nonnull align 8 dereferenceable(8) ptr @_ZStlsISt11char_traitsIcEERSt13basic_ostreamIcT_ES5_PKc(ptr noundef nonnull align 8 dereferenceable(8) %92, ptr noundef @.str.8)
          to label %95 unwind label %102

95:                                               ; preds = %93
  %96 = load i32, ptr %13, align 4
  %97 = sub nsw i32 0, %96
  %98 = invoke noundef nonnull align 8 dereferenceable(8) ptr @_ZNSolsEi(ptr noundef nonnull align 8 dereferenceable(8) %94, i32 noundef %97)
          to label %99 unwind label %102

99:                                               ; preds = %95
  %100 = invoke noundef nonnull align 8 dereferenceable(8) ptr @_ZStlsISt11char_traitsIcEERSt13basic_ostreamIcT_ES5_PKc(ptr noundef nonnull align 8 dereferenceable(8) %98, ptr noundef @.str.9)
          to label %101 unwind label %102

101:                                              ; preds = %99
  call void @_ZN6google15LogMessageFatalD1Ev(ptr noundef nonnull align 8 dereferenceable(96) %14) #17
  unreachable

102:                                              ; preds = %99, %95, %93, %91, %89, %87, %85
  %103 = landingpad { ptr, i32 }
          cleanup
  %104 = extractvalue { ptr, i32 } %103, 0
  store ptr %104, ptr %15, align 8
  %105 = extractvalue { ptr, i32 } %103, 1
  store i32 %105, ptr %16, align 4
  call void @_ZN6google15LogMessageFatalD1Ev(ptr noundef nonnull align 8 dereferenceable(96) %14) #17
  unreachable

106:                                              ; No predecessors!
  br label %113

107:                                              ; preds = %81
  %108 = load ptr, ptr %11, align 8
  %109 = call noundef nonnull align 8 dereferenceable(32) ptr @_ZNSt7__cxx1112basic_stringIcSt11char_traitsIcESaIcEEaSEPKc(ptr noundef nonnull align 8 dereferenceable(32) %108, ptr noundef @.str.19)
  %110 = getelementptr inbounds %"class.ceres::internal::CUDADenseQR", ptr %17, i32 0, i32 9
  store i32 0, ptr %110, align 8
  store i32 0, ptr %6, align 4
  br label %111

111:                                              ; preds = %107, %78, %51
  %112 = load i32, ptr %6, align 4
  ret i32 %112

113:                                              ; preds = %106
  %114 = load ptr, ptr %15, align 8
  %115 = load i32, ptr %16, align 4
  %116 = insertvalue { ptr, i32 } poison, ptr %114, 0
  %117 = insertvalue { ptr, i32 } %116, i32 %115, 1
  resume { ptr, i32 } %117
}