; Function Attrs: mustprogress uwtable
define hidden noundef i32 @_ZN5ceres8internal11CUDADenseQR9FactorizeEiiPdPNSt7__cxx1112basic_stringIcSt11char_traitsIcESaIcEEE(ptr noundef nonnull align 8 dereferenceable(160) %0, i32 noundef %1, i32 noundef %2, ptr noundef %3, ptr noundef %4) unnamed_addr #3 align 2 personality ptr @__gxx_personality_v0 {
  %6 = alloca i32, align 4
  %7 = alloca i32, align 4
  %8 = alloca %"class.google::LogMessageFatal", align 8
  %9 = getelementptr inbounds i8, ptr %0, i64 152
  store i32 3, ptr %9, align 8
  %10 = getelementptr inbounds i8, ptr %0, i64 32
  %11 = mul nsw i32 %2, %1
  %12 = sext i32 %11 to i64
  tail call void @_ZN5ceres8internal10CudaBufferIdE7ReserveEm(ptr noundef nonnull align 8 dereferenceable(24) %10, i64 noundef %12)
  %13 = getelementptr inbounds i8, ptr %0, i64 80
  %.sroa.speculated = tail call i32 @llvm.smin.i32(i32 %2, i32 %1)
  %14 = sext i32 %.sroa.speculated to i64
  tail call void @_ZN5ceres8internal10CudaBufferIdE7ReserveEm(ptr noundef nonnull align 8 dereferenceable(24) %13, i64 noundef %14)
  %15 = sext i32 %1 to i64
  %16 = getelementptr inbounds i8, ptr %0, i64 16
  store i64 %15, ptr %16, align 8
  %17 = sext i32 %2 to i64
  %18 = getelementptr inbounds i8, ptr %0, i64 24
  store i64 %17, ptr %18, align 8
  tail call void @_ZN5ceres8internal10CudaBufferIdE11CopyFromCpuEPKdm(ptr noundef nonnull align 8 dereferenceable(24) %10, ptr noundef %3, i64 noundef %12)
  store i32 0, ptr %6, align 4
  %19 = getelementptr inbounds i8, ptr %0, i64 8
  %20 = load ptr, ptr %19, align 8
  %21 = getelementptr inbounds i8, ptr %20, i64 248
  %22 = load ptr, ptr %21, align 8
  %23 = load ptr, ptr %10, align 8
  %24 = call i32 @cusolverDnDgeqrf_bufferSize(ptr noundef %22, i32 noundef %1, i32 noundef %2, ptr noundef %23, i32 noundef %1, ptr noundef nonnull %6)
  %.not = icmp eq i32 %24, 0
  br i1 %.not, label %27, label %25

25:                                               ; preds = %5
  %26 = call noundef nonnull align 8 dereferenceable(32) ptr @_ZNSt7__cxx1112basic_stringIcSt11char_traitsIcESaIcEEaSEPKc(ptr noundef nonnull align 8 dereferenceable(32) %4, ptr noundef nonnull @.str.14)
  br label %69

27:                                               ; preds = %5
  %28 = getelementptr inbounds i8, ptr %0, i64 104
  %29 = load i32, ptr %6, align 4
  %30 = sext i32 %29 to i64
  call void @_ZN5ceres8internal10CudaBufferIdE7ReserveEm(ptr noundef nonnull align 8 dereferenceable(24) %28, i64 noundef %30)
  %31 = load ptr, ptr %19, align 8
  %32 = getelementptr inbounds i8, ptr %31, i64 248
  %33 = load ptr, ptr %32, align 8
  %34 = load ptr, ptr %10, align 8
  %35 = load ptr, ptr %13, align 8
  %36 = load ptr, ptr %28, align 8
  %37 = getelementptr inbounds i8, ptr %0, i64 112
  %38 = load i64, ptr %37, align 8
  %39 = trunc i64 %38 to i32
  %40 = getelementptr inbounds i8, ptr %0, i64 128
  %41 = load ptr, ptr %40, align 8
  %42 = call i32 @cusolverDnDgeqrf(ptr noundef %33, i32 noundef %1, i32 noundef %2, ptr noundef %34, i32 noundef %1, ptr noundef %35, ptr noundef %36, i32 noundef %39, ptr noundef %41)
  %.not5 = icmp eq i32 %42, 0
  br i1 %.not5, label %45, label %43

43:                                               ; preds = %27
  %44 = call noundef nonnull align 8 dereferenceable(32) ptr @_ZNSt7__cxx1112basic_stringIcSt11char_traitsIcESaIcEEaSEPKc(ptr noundef nonnull align 8 dereferenceable(32) %4, ptr noundef nonnull @.str.15)
  br label %69

45:                                               ; preds = %27
  store i32 0, ptr %7, align 4
  call void @_ZNK5ceres8internal10CudaBufferIiE9CopyToCpuEPim(ptr noundef nonnull align 8 dereferenceable(24) %40, ptr noundef nonnull %7, i64 noundef 1)
  %46 = load i32, ptr %7, align 4
  %47 = icmp slt i32 %46, 0
  br i1 %47, label %48, label %67

48:                                               ; preds = %45
  call void @_ZN6google15LogMessageFatalC1EPKci(ptr noundef nonnull align 8 dereferenceable(96) %8, ptr noundef nonnull @.str, i32 noundef 359)
  %49 = invoke noundef nonnull align 8 dereferenceable(8) ptr @_ZN6google10LogMessage6streamEv(ptr noundef nonnull align 8 dereferenceable(96) %8)
          to label %50 unwind label %65

50:                                               ; preds = %48
  %51 = invoke noundef nonnull align 8 dereferenceable(8) ptr @_ZStlsISt11char_traitsIcEERSt13basic_ostreamIcT_ES5_PKc(ptr noundef nonnull align 8 dereferenceable(8) %49, ptr noundef nonnull @.str.16)
          to label %52 unwind label %65

52:                                               ; preds = %50
  %53 = invoke noundef nonnull align 8 dereferenceable(8) ptr @_ZStlsISt11char_traitsIcEERSt13basic_ostreamIcT_ES5_PKc(ptr noundef nonnull align 8 dereferenceable(8) %51, ptr noundef nonnull @.str.17)
          to label %54 unwind label %65

54:                                               ; preds = %52
  %55 = invoke noundef nonnull align 8 dereferenceable(8) ptr @_ZStlsISt11char_traitsIcEERSt13basic_ostreamIcT_ES5_PKc(ptr noundef nonnull align 8 dereferenceable(8) %53, ptr noundef nonnull @.str.18)
          to label %56 unwind label %65

56:                                               ; preds = %54
  %57 = invoke noundef nonnull align 8 dereferenceable(8) ptr @_ZStlsISt11char_traitsIcEERSt13basic_ostreamIcT_ES5_PKc(ptr noundef nonnull align 8 dereferenceable(8) %55, ptr noundef nonnull @.str.8)
          to label %58 unwind label %65

58:                                               ; preds = %56
  %59 = load i32, ptr %7, align 4
  %60 = sub nsw i32 0, %59
  %61 = invoke noundef nonnull align 8 dereferenceable(8) ptr @_ZNSolsEi(ptr noundef nonnull align 8 dereferenceable(8) %57, i32 noundef %60)
          to label %62 unwind label %65

62:                                               ; preds = %58
  %63 = invoke noundef nonnull align 8 dereferenceable(8) ptr @_ZStlsISt11char_traitsIcEERSt13basic_ostreamIcT_ES5_PKc(ptr noundef nonnull align 8 dereferenceable(8) %61, ptr noundef nonnull @.str.9)
          to label %64 unwind label %65

64:                                               ; preds = %62
  call void @_ZN6google15LogMessageFatalD1Ev(ptr noundef nonnull align 8 dereferenceable(96) %8) #23
  unreachable

65:                                               ; preds = %62, %58, %56, %54, %52, %50, %48
  %66 = landingpad { ptr, i32 }
          cleanup
  call void @_ZN6google15LogMessageFatalD1Ev(ptr noundef nonnull align 8 dereferenceable(96) %8) #23
  unreachable

67:                                               ; preds = %45
  %68 = call noundef nonnull align 8 dereferenceable(32) ptr @_ZNSt7__cxx1112basic_stringIcSt11char_traitsIcESaIcEEaSEPKc(ptr noundef nonnull align 8 dereferenceable(32) %4, ptr noundef nonnull @.str.19)
  store i32 0, ptr %9, align 8
  br label %69

69:                                               ; preds = %67, %43, %25
  %.0 = phi i32 [ 3, %25 ], [ 3, %43 ], [ 0, %67 ]
  ret i32 %.0
}